; Function Attrs: mustprogress nofree norecurse nosync nounwind willreturn memory(argmem: readwrite) uwtable
define dso_local void @LLVMSetGlobalConstant(ptr noundef captures(none) %0, i32 noundef %1) local_unnamed_addr #13 {
  %3 = icmp ne i32 %1, 0
  %4 = zext i1 %3 to i8
  %5 = getelementptr inbounds nuw i8, ptr %0, i64 80
  %6 = load i8, ptr %5, align 8
  %7 = and i8 %6, -2
  %8 = or disjoint i8 %7, %4
  store i8 %8, ptr %5, align 8
  ret void
}